target datalayout = "e-m:e-p270:32:32-p271:32:32-p272:64:64-i64:64-i128:128-f80:128-n8:16:32:64-S128"
target triple = "x86_64-unknown-linux-gnu"

%"class.std::vector" = type { %"struct.std::_Vector_base" }
%"struct.std::_Vector_base" = type { %"struct.std::_Vector_base<std::__cxx11::basic_string<char>, std::allocator<std::__cxx11::basic_string<char>>>::_Vector_impl" }
%"struct.std::_Vector_base<std::__cxx11::basic_string<char>, std::allocator<std::__cxx11::basic_string<char>>>::_Vector_impl" = type { %"struct.std::_Vector_base<std::__cxx11::basic_string<char>, std::allocator<std::__cxx11::basic_string<char>>>::_Vector_impl_data" }
%"struct.std::_Vector_base<std::__cxx11::basic_string<char>, std::allocator<std::__cxx11::basic_string<char>>>::_Vector_impl_data" = type { ptr, ptr, ptr }

; Function Attrs: mustprogress nounwind uwtable
define internal fastcc void @"_ZN5folly6detail14ScopeGuardImplIZNS_3ssl16OpenSSLCertUtils18getSubjectAltNamesB5cxx11ER7x509_stE3$_0Lb1EED2Ev"(i8 %this.0.val, ptr nocapture readonly %this.8.val) unnamed_addr #8 align 2 personality ptr @__gxx_personality_v0 {
entry:
  %tobool.not = icmp eq i8 %this.0.val, 0
  br i1 %tobool.not, label %if.then, label %if.end

if.then:                                          ; preds = %entry
  %this.val.val = load ptr, ptr %this.8.val, align 8, !tbaa !23
  invoke void @OPENSSL_sk_pop_free(ptr noundef %this.val.val, ptr noundef nonnull @GENERAL_NAME_free)
          to label %if.end unwind label %terminate.lpad.i.i

terminate.lpad.i.i:                               ; preds = %if.then
  %0 = landingpad { ptr, i32 }
          catch ptr null
  %1 = extractvalue { ptr, i32 } %0, 0
  tail call void @__clang_call_terminate(ptr %1) #19
  unreachable

if.end:                                           ; preds = %if.then, %entry
  ret void
}

; Function Attrs: mustprogress uwtable
define void @_ZN5folly3ssl16OpenSSLCertUtils18getSubjectAltNamesB5cxx11ER7x509_st(ptr dead_on_unwind noalias writable sret(%"class.std::vector") align 8 %agg.result, ptr noundef nonnull align 1 %x509) local_unnamed_addr #0 align 2 personality ptr @__gxx_personality_v0 {
entry:
  %names = alloca ptr, align 8
  %nameData = alloca ptr, align 8
  %nameLen = alloca i32, align 4
  call void @llvm.lifetime.start.p0(i64 8, ptr nonnull %names) #18
  %call = tail call ptr @X509_get_ext_d2i(ptr noundef nonnull %x509, i32 noundef 85, ptr noundef null, ptr noundef null)
  store ptr %call, ptr %names, align 8, !tbaa !23
  %tobool.not = icmp eq ptr %call, null
  br i1 %tobool.not, label %if.then, label %if.end

if.then:                                          ; preds = %entry
  tail call void @llvm.memset.p0.i64(ptr noundef nonnull align 8 dereferenceable(24) %agg.result, i8 0, i64 24, i1 false)
  br label %cleanup40

if.end:                                           ; preds = %entry
  tail call void @llvm.memset.p0.i64(ptr noundef nonnull align 8 dereferenceable(24) %agg.result, i8 0, i64 24, i1 false)
  %call3 = invoke i32 @OPENSSL_sk_num(ptr noundef nonnull %call)
          to label %for.cond.preheader unwind label %lpad

for.cond.preheader:                               ; preds = %if.end
  %cmp56 = icmp sgt i32 %call3, 0
  br i1 %cmp56, label %for.body, label %if.then.i

lpad:                                             ; preds = %if.end
  %0 = landingpad { ptr, i32 }
          cleanup
  br label %ehcleanup33

for.body:                                         ; preds = %cleanup28, %for.cond.preheader
  %i.057 = phi i32 [ %inc, %cleanup28 ], [ 0, %for.cond.preheader ]
  %call8 = invoke ptr @OPENSSL_sk_value(ptr noundef nonnull %call, i32 noundef %i.057)
          to label %invoke.cont7 unwind label %lpad4

invoke.cont7:                                     ; preds = %for.body
  %tobool9.not = icmp eq ptr %call8, null
  br i1 %tobool9.not, label %cleanup28, label %lor.lhs.false

lor.lhs.false:                                    ; preds = %invoke.cont7
  %1 = load i32, ptr %call8, align 8, !tbaa !24
  %cmp10.not = icmp eq i32 %1, 2
  br i1 %cmp10.not, label %if.end12, label %cleanup28

lpad4:                                            ; preds = %for.body
  %2 = landingpad { ptr, i32 }
          cleanup
  br label %ehcleanup33

if.end12:                                         ; preds = %lor.lhs.false
  call void @llvm.lifetime.start.p0(i64 8, ptr nonnull %nameData) #18
  %d = getelementptr inbounds i8, ptr %call8, i64 8
  %3 = load ptr, ptr %d, align 8, !tbaa !19
  %call15 = invoke ptr @ASN1_STRING_get0_data(ptr noundef %3)
          to label %invoke.cont14 unwind label %lpad13

invoke.cont14:                                    ; preds = %if.end12
  store ptr %call15, ptr %nameData, align 8, !tbaa !23
  call void @llvm.lifetime.start.p0(i64 4, ptr nonnull %nameLen) #18
  %4 = load ptr, ptr %d, align 8, !tbaa !19
  %call19 = invoke i32 @ASN1_STRING_length(ptr noundef %4)
          to label %invoke.cont18 unwind label %lpad17

invoke.cont18:                                    ; preds = %invoke.cont14
  store i32 %call19, ptr %nameLen, align 4, !tbaa !27
  %5 = load ptr, ptr %nameData, align 8, !tbaa !23
  %tobool20 = icmp eq ptr %5, null
  %cmp22 = icmp slt i32 %call19, 1
  %or.cond = select i1 %tobool20, i1 true, i1 %cmp22
  br i1 %or.cond, label %cleanup, label %if.end24

lpad13:                                           ; preds = %if.end12
  %6 = landingpad { ptr, i32 }
          cleanup
  br label %ehcleanup

lpad17:                                           ; preds = %if.end24, %invoke.cont14
  %7 = landingpad { ptr, i32 }
          cleanup
  call void @llvm.lifetime.end.p0(i64 4, ptr nonnull %nameLen) #18
  br label %ehcleanup

if.end24:                                         ; preds = %invoke.cont18
  %call26 = invoke noundef nonnull align 8 dereferenceable(32) ptr @_ZNSt6vectorINSt7__cxx1112basic_stringIcSt11char_traitsIcESaIcEEESaIS5_EE12emplace_backIJRPKcRiEEERS5_DpOT_(ptr noundef nonnull align 8 dereferenceable(24) %agg.result, ptr noundef nonnull align 8 dereferenceable(8) %nameData, ptr noundef nonnull align 4 dereferenceable(4) %nameLen)
          to label %cleanup unwind label %lpad17

cleanup:                                          ; preds = %if.end24, %invoke.cont18
  call void @llvm.lifetime.end.p0(i64 4, ptr nonnull %nameLen) #18
  call void @llvm.lifetime.end.p0(i64 8, ptr nonnull %nameData) #18
  br label %cleanup28

cleanup28:                                        ; preds = %cleanup, %lor.lhs.false, %invoke.cont7
  %inc = add nuw nsw i32 %i.057, 1
  %exitcond.not = icmp eq i32 %inc, %call3
  br i1 %exitcond.not, label %if.then.i, label %for.body, !llvm.loop !28

ehcleanup:                                        ; preds = %lpad17, %lpad13
  %.pn = phi { ptr, i32 } [ %7, %lpad17 ], [ %6, %lpad13 ]
  call void @llvm.lifetime.end.p0(i64 8, ptr nonnull %nameData) #18
  br label %ehcleanup33

ehcleanup33:                                      ; preds = %ehcleanup, %lpad4, %lpad
  %.pn.pn.pn = phi { ptr, i32 } [ %0, %lpad ], [ %.pn, %ehcleanup ], [ %2, %lpad4 ]
  call void @_ZNSt6vectorINSt7__cxx1112basic_stringIcSt11char_traitsIcESaIcEEESaIS5_EED2Ev(ptr noundef nonnull align 8 dereferenceable(24) %agg.result) #18
  call fastcc void @"_ZN5folly6detail14ScopeGuardImplIZNS_3ssl16OpenSSLCertUtils18getSubjectAltNamesB5cxx11ER7x509_stE3$_0Lb1EED2Ev"(i8 0, ptr nonnull %names) #18
  call void @llvm.lifetime.end.p0(i64 8, ptr nonnull %names) #18
  resume { ptr, i32 } %.pn.pn.pn

if.then.i:                                        ; preds = %cleanup28, %for.cond.preheader
  invoke void @OPENSSL_sk_pop_free(ptr noundef nonnull %call, ptr noundef nonnull @GENERAL_NAME_free)
          to label %cleanup40 unwind label %terminate.lpad.i.i.i

terminate.lpad.i.i.i:                             ; preds = %if.then.i
  %8 = landingpad { ptr, i32 }
          catch ptr null
  %9 = extractvalue { ptr, i32 } %8, 0
  call void @__clang_call_terminate(ptr %9) #19
  unreachable

cleanup40:                                        ; preds = %if.then.i, %if.then
  call void @llvm.lifetime.end.p0(i64 8, ptr nonnull %names) #18
  ret void
}